target datalayout = "e-m:e-p270:32:32-p271:32:32-p272:64:64-i64:64-i128:128-f80:128-n8:16:32:64-S128"
target triple = "x86_64-pc-linux-gnu"

%class.btVector3 = type { [4 x float] }
%class.btAlignedObjectArray.0 = type <{ [4 x i8], i32, i32, [4 x i8], ptr, i8, [7 x i8] }>
%class.btAlignedObjectArray.2 = type <{ [4 x i8], i32, i32, [4 x i8], ptr, i8, [7 x i8] }>
%class.btSequentialImpulseConstraintSolver = type { %class.btConstraintSolver, %class.btAlignedObjectArray.4, %class.btAlignedObjectArray.6, %class.btAlignedObjectArray.6, %class.btAlignedObjectArray.6, %class.btAlignedObjectArray.6, %class.btAlignedObjectArray.0, %class.btAlignedObjectArray.0, %class.btAlignedObjectArray.0, %class.btAlignedObjectArray.8, i32, i32, %class.btAlignedObjectArray.0, ptr, ptr, ptr, i32, float, i64, %struct.btSolverAnalyticsData }
%class.btConstraintSolver = type { ptr }
%class.btAlignedObjectArray.4 = type <{ [4 x i8], i32, i32, [4 x i8], ptr, i8, [7 x i8] }>
%class.btAlignedObjectArray.6 = type <{ [4 x i8], i32, i32, [4 x i8], ptr, i8, [7 x i8] }>
%class.btAlignedObjectArray.8 = type <{ [4 x i8], i32, i32, [4 x i8], ptr, i8, [7 x i8] }>
%struct.btSolverAnalyticsData = type { i32, i32, i32, i32, i32, double }
%struct.btContactSolverInfoData = type { float, float, float, float, float, i32, float, float, float, float, float, float, float, float, float, float, i32, float, float, float, float, float, i32, i32, i32, float, float, float, float, i8, i8, i32, i32 }
%class.btDeformableMultiBodyConstraintSolver = type { %class.btMultiBodyConstraintSolver.base, ptr }
%class.btMultiBodyConstraintSolver.base = type <{ %class.btSequentialImpulseConstraintSolver, %class.btAlignedObjectArray.10, %class.btAlignedObjectArray.10, %class.btAlignedObjectArray.10, %class.btAlignedObjectArray.10, %class.btAlignedObjectArray.10, %struct.btMultiBodyJacobianData, ptr, i32 }>
%class.btAlignedObjectArray.10 = type <{ [4 x i8], i32, i32, [4 x i8], ptr, i8, [7 x i8] }>
%struct.btMultiBodyJacobianData = type <{ %class.btAlignedObjectArray.12, %class.btAlignedObjectArray.12, %class.btAlignedObjectArray.12, %class.btAlignedObjectArray.12, %class.btAlignedObjectArray.2, %class.btAlignedObjectArray.14, ptr, i32, [4 x i8] }>
%class.btAlignedObjectArray.12 = type <{ [4 x i8], i32, i32, [4 x i8], ptr, i8, [7 x i8] }>
%class.btAlignedObjectArray.14 = type <{ [4 x i8], i32, i32, [4 x i8], ptr, i8, [7 x i8] }>
%class.btReducedDeformableBodySolver = type { %class.btDeformableBodySolver.base, i8, float, float, %class.btVector3, [4 x i8], %class.btAlignedObjectArray.22, %class.btAlignedObjectArray.24, %class.btAlignedObjectArray.26 }
%class.btDeformableBodySolver.base = type <{ %class.btSoftBodySolver.base, i32, %class.btAlignedObjectArray.2, %class.btAlignedObjectArray.2, %class.btAlignedObjectArray.2, %class.btAlignedObjectArray.2, %class.btAlignedObjectArray.16, %class.btAlignedObjectArray.2, float, [4 x i8], %class.btConjugateGradient, %class.btConjugateResidual, i8, [3 x i8], i32, float, i8, i8, [2 x i8], ptr, i8 }>
%class.btSoftBodySolver.base = type <{ ptr, i32, i32, float }>
%class.btAlignedObjectArray.16 = type <{ [4 x i8], i32, i32, [4 x i8], ptr, i8, [7 x i8] }>
%class.btConjugateGradient = type { %class.btKrylovSolver, %class.btAlignedObjectArray.2, %class.btAlignedObjectArray.2, %class.btAlignedObjectArray.2, %class.btAlignedObjectArray.2 }
%class.btKrylovSolver = type { ptr, i32, float }
%class.btConjugateResidual = type <{ %class.btKrylovSolver, %class.btAlignedObjectArray.2, %class.btAlignedObjectArray.2, %class.btAlignedObjectArray.2, %class.btAlignedObjectArray.2, %class.btAlignedObjectArray.2, %class.btAlignedObjectArray.2, float, [4 x i8] }>
%class.btAlignedObjectArray.22 = type <{ [4 x i8], i32, i32, [4 x i8], ptr, i8, [7 x i8] }>
%class.btAlignedObjectArray.24 = type <{ [4 x i8], i32, i32, [4 x i8], ptr, i8, [7 x i8] }>
%class.btAlignedObjectArray.26 = type <{ [4 x i8], i32, i32, [4 x i8], ptr, i8, [7 x i8] }>
%class.btDeformableRigidContactConstraint = type { %class.btDeformableContactConstraint, %class.btVector3, %class.btVector3, float, float, i8, ptr }
%class.btDeformableContactConstraint = type { ptr, i8, ptr, %class.btVector3 }
%"class.btSoftBody::DeformableRigidContact" = type { %"struct.btSoftBody::sCti", %class.btMatrix3x3, %class.btVector3, float, float, float, %class.btMatrix3x3, [4 x i8], %struct.btMultiBodyJacobianData, %struct.btMultiBodyJacobianData, %struct.btMultiBodyJacobianData, %class.btVector3, %class.btVector3 }
%"struct.btSoftBody::sCti" = type <{ ptr, %class.btVector3, %class.btVector3, float, %class.btVector3, [4 x i8] }>
%class.btMatrix3x3 = type { [3 x %class.btVector3] }
%struct.btSolverBody = type { %class.btTransform, %class.btVector3, %class.btVector3, %class.btVector3, %class.btVector3, %class.btVector3, %class.btVector3, %class.btVector3, %class.btVector3, %class.btVector3, %class.btVector3, %class.btVector3, ptr }
%class.btTransform = type { %class.btMatrix3x3, %class.btVector3 }
%class.btCollisionObject = type <{ ptr, %class.btTransform, %class.btTransform, %class.btVector3, %class.btVector3, %class.btVector3, i32, float, ptr, ptr, ptr, ptr, i32, i32, i32, i32, i32, float, float, float, float, float, float, float, i32, [4 x i8], ptr, i32, i32, i32, float, float, float, i32, [4 x i8], %class.btAlignedObjectArray.18, i32, %class.btVector3, [4 x i8] }>
%class.btAlignedObjectArray.18 = type <{ [4 x i8], i32, i32, [4 x i8], ptr, i8, [7 x i8] }>
%class.btRigidBody = type { %class.btCollisionObject.base, %class.btMatrix3x3, %class.btVector3, %class.btVector3, float, %class.btVector3, %class.btVector3, %class.btVector3, %class.btVector3, %class.btVector3, %class.btVector3, float, float, i8, float, float, float, float, float, float, ptr, %class.btAlignedObjectArray.20, i32, i32, %class.btVector3, %class.btVector3, %class.btVector3, %class.btVector3, %class.btVector3, %class.btVector3, i32, i32 }
%class.btCollisionObject.base = type <{ ptr, %class.btTransform, %class.btTransform, %class.btVector3, %class.btVector3, %class.btVector3, i32, float, ptr, ptr, ptr, ptr, i32, i32, i32, i32, i32, float, float, float, float, float, float, float, i32, [4 x i8], ptr, i32, i32, i32, float, float, float, i32, [4 x i8], %class.btAlignedObjectArray.18, i32, %class.btVector3 }>
%class.btAlignedObjectArray.20 = type <{ [4 x i8], i32, i32, [4 x i8], ptr, i8, [7 x i8] }>
%class.btAlignedObjectArray.28 = type <{ [4 x i8], i32, i32, [4 x i8], ptr, i8, [7 x i8] }>
%class.btReducedDeformableNodeRigidContactConstraint = type { %class.btReducedDeformableRigidContactConstraint.base, ptr }
%class.btReducedDeformableRigidContactConstraint.base = type <{ %class.btDeformableRigidContactConstraint, i8, i8, [2 x i8], i32, i32, [4 x i8], ptr, ptr, float, float, float, float, float, float, float, float, float, float, float, float, float, float, float, float, float, %class.btVector3, %class.btVector3, %class.btVector3, %class.btVector3, %class.btVector3, %class.btVector3, %class.btMatrix3x3, %class.btVector3, %class.btVector3, %class.btVector3, %class.btVector3, %class.btVector3, %class.btVector3 }>

; Function Attrs: mustprogress nounwind uwtable
define linkonce_odr dso_local noundef i32 @_ZNK17btCollisionObject15getInternalTypeEv(ptr noundef nonnull align 8 dereferenceable(372) %0) #1 comdat align 2 {
  %2 = alloca ptr, align 8
  store ptr %0, ptr %2, align 8, !tbaa !106
  %3 = load ptr, ptr %2, align 8
  %4 = getelementptr inbounds nuw %class.btCollisionObject, ptr %3, i32 0, i32 24
  %5 = load i32, ptr %4, align 8, !tbaa !230
  ret i32 %5
}

; Function Attrs: inlinehint mustprogress nounwind uwtable
define linkonce_odr dso_local noundef nonnull align 8 dereferenceable(248) ptr @_ZN20btAlignedObjectArrayI12btSolverBodyEixEi(ptr noundef nonnull align 8 dereferenceable(25) %0, i32 noundef %1) #6 comdat align 2 {
  %3 = alloca ptr, align 8
  %4 = alloca i32, align 4
  store ptr %0, ptr %3, align 8, !tbaa !153
  store i32 %1, ptr %4, align 4, !tbaa !9
  %5 = load ptr, ptr %3, align 8
  %6 = getelementptr inbounds nuw %class.btAlignedObjectArray.4, ptr %5, i32 0, i32 4
  %7 = load ptr, ptr %6, align 8, !tbaa !154
  %8 = load i32, ptr %4, align 4, !tbaa !9
  %9 = sext i32 %8 to i64
  %10 = getelementptr inbounds %struct.btSolverBody, ptr %7, i64 %9
  ret ptr %10
}

; Function Attrs: mustprogress nounwind uwtable
define linkonce_odr dso_local noundef float @_ZNK11btRigidBody10getInvMassEv(ptr noundef nonnull align 8 dereferenceable(744) %0) #1 comdat align 2 {
  %2 = alloca ptr, align 8
  store ptr %0, ptr %2, align 8, !tbaa !126
  %3 = load ptr, ptr %2, align 8
  %4 = getelementptr inbounds nuw %class.btRigidBody, ptr %3, i32 0, i32 4
  %5 = load float, ptr %4, align 4, !tbaa !148
  ret float %5
}

; Function Attrs: mustprogress uwtable
define linkonce_odr dso_local noundef ptr @_ZN11btRigidBody6upcastEP17btCollisionObject(ptr noundef %0) #7 comdat align 2 {
  %2 = alloca ptr, align 8
  %3 = alloca ptr, align 8
  store ptr %0, ptr %3, align 8, !tbaa !106
  %4 = load ptr, ptr %3, align 8, !tbaa !106
  %5 = call noundef i32 @_ZNK17btCollisionObject15getInternalTypeEv(ptr noundef nonnull align 8 dereferenceable(372) %4)
  %6 = and i32 %5, 2
  %7 = icmp ne i32 %6, 0
  br i1 %7, label %8, label %10

8:                                                ; preds = %1
  %9 = load ptr, ptr %3, align 8, !tbaa !106
  store ptr %9, ptr %2, align 8
  br label %11

10:                                               ; preds = %1
  store ptr null, ptr %2, align 8
  br label %11

11:                                               ; preds = %10, %8
  %12 = load ptr, ptr %2, align 8
  ret ptr %12
}

; Function Attrs: inlinehint mustprogress nounwind uwtable
define linkonce_odr dso_local noundef zeroext i1 @_ZNK17btCollisionObject14isStaticObjectEv(ptr noundef nonnull align 8 dereferenceable(372) %0) #6 comdat align 2 {
  %2 = alloca ptr, align 8
  store ptr %0, ptr %2, align 8, !tbaa !106
  %3 = load ptr, ptr %2, align 8
  %4 = getelementptr inbounds nuw %class.btCollisionObject, ptr %3, i32 0, i32 12
  %5 = load i32, ptr %4, align 8, !tbaa !168
  %6 = and i32 %5, 1
  %7 = icmp ne i32 %6, 0
  ret i1 %7
}

; Function Attrs: inlinehint mustprogress nounwind uwtable
define linkonce_odr dso_local noundef nonnull align 8 dereferenceable(448) ptr @_ZN20btAlignedObjectArrayI45btReducedDeformableNodeRigidContactConstraintEixEi(ptr noundef nonnull align 8 dereferenceable(25) %0, i32 noundef %1) #6 comdat align 2 {
  %3 = alloca ptr, align 8
  %4 = alloca i32, align 4
  store ptr %0, ptr %3, align 8, !tbaa !163
  store i32 %1, ptr %4, align 4, !tbaa !9
  %5 = load ptr, ptr %3, align 8
  %6 = getelementptr inbounds nuw %class.btAlignedObjectArray.28, ptr %5, i32 0, i32 4
  %7 = load ptr, ptr %6, align 8, !tbaa !167
  %8 = load i32, ptr %4, align 4, !tbaa !9
  %9 = sext i32 %8 to i64
  %10 = getelementptr inbounds %class.btReducedDeformableNodeRigidContactConstraint, ptr %7, i64 %9
  ret ptr %10
}

; Function Attrs: inlinehint mustprogress nounwind uwtable
define linkonce_odr dso_local noundef i32 @_ZNK20btAlignedObjectArrayI45btReducedDeformableNodeRigidContactConstraintE4sizeEv(ptr noundef nonnull align 8 dereferenceable(25) %0) #6 comdat align 2 {
  %2 = alloca ptr, align 8
  store ptr %0, ptr %2, align 8, !tbaa !163
  %3 = load ptr, ptr %2, align 8
  %4 = getelementptr inbounds nuw %class.btAlignedObjectArray.28, ptr %3, i32 0, i32 1
  %5 = load i32, ptr %4, align 4, !tbaa !164
  ret i32 %5
}

; Function Attrs: inlinehint mustprogress nounwind uwtable
define linkonce_odr dso_local noundef nonnull align 8 dereferenceable(25) ptr @_ZN20btAlignedObjectArrayIS_I45btReducedDeformableNodeRigidContactConstraintEEixEi(ptr noundef nonnull align 8 dereferenceable(25) %0, i32 noundef %1) #6 comdat align 2 {
  %3 = alloca ptr, align 8
  %4 = alloca i32, align 4
  store ptr %0, ptr %3, align 8, !tbaa !157
  store i32 %1, ptr %4, align 4, !tbaa !9
  %5 = load ptr, ptr %3, align 8
  %6 = getelementptr inbounds nuw %class.btAlignedObjectArray.24, ptr %5, i32 0, i32 4
  %7 = load ptr, ptr %6, align 8, !tbaa !159
  %8 = load i32, ptr %4, align 4, !tbaa !9
  %9 = sext i32 %8 to i64
  %10 = getelementptr inbounds %class.btAlignedObjectArray.28, ptr %7, i64 %9
  ret ptr %10
}

; Function Attrs: mustprogress uwtable
define dso_local void @_ZN37btDeformableMultiBodyConstraintSolver27pairDeformableAndSolverBodyEPP17btCollisionObjectiiRK19btContactSolverInfo(ptr noundef nonnull align 8 dereferenceable(800) %0, ptr noundef %1, i32 noundef %2, i32 noundef %3, ptr noundef nonnull align 4 dereferenceable(128) %4) #7 align 2 {
  %6 = alloca ptr, align 8
  %7 = alloca ptr, align 8
  %8 = alloca i32, align 4
  %9 = alloca i32, align 4
  %10 = alloca ptr, align 8
  %11 = alloca ptr, align 8
  %12 = alloca i32, align 4
  %13 = alloca i32, align 4
  %14 = alloca i32, align 4
  %15 = alloca ptr, align 8
  %16 = alloca ptr, align 8
  %17 = alloca i32, align 4
  %18 = alloca ptr, align 8
  %19 = alloca ptr, align 8
  store ptr %0, ptr %6, align 8, !tbaa !58
  store ptr %1, ptr %7, align 8, !tbaa !60
  store i32 %2, ptr %8, align 4, !tbaa !9
  store i32 %3, ptr %9, align 4, !tbaa !9
  store ptr %4, ptr %10, align 8, !tbaa !66
  %20 = load ptr, ptr %6, align 8
  %21 = getelementptr inbounds nuw %class.btDeformableMultiBodyConstraintSolver, ptr %20, i32 0, i32 1
  %22 = load ptr, ptr %21, align 8, !tbaa !87
  %23 = load ptr, ptr %22, align 8, !tbaa !51
  %24 = getelementptr inbounds ptr, ptr %23, i64 30
  %25 = load ptr, ptr %24, align 8
  %26 = call noundef zeroext i1 %25(ptr noundef nonnull align 8 dereferenceable(609) %22)
  br i1 %26, label %28, label %27

27:                                               ; preds = %5
  br label %101

28:                                               ; preds = %5
  call void @llvm.lifetime.start.p0(i64 8, ptr %11) #4
  %29 = getelementptr inbounds nuw %class.btDeformableMultiBodyConstraintSolver, ptr %20, i32 0, i32 1
  %30 = load ptr, ptr %29, align 8, !tbaa !87
  store ptr %30, ptr %11, align 8, !tbaa !112
  call void @llvm.lifetime.start.p0(i64 4, ptr %12) #4
  store i32 0, ptr %12, align 4, !tbaa !9
  br label %31

31:                                               ; preds = %97, %28
  %32 = load i32, ptr %12, align 4, !tbaa !9
  %33 = load i32, ptr %9, align 4, !tbaa !9
  %34 = icmp slt i32 %32, %33
  br i1 %34, label %36, label %35

35:                                               ; preds = %31
  store i32 2, ptr %13, align 4
  call void @llvm.lifetime.end.p0(i64 4, ptr %12) #4
  br label %100

36:                                               ; preds = %31
  call void @llvm.lifetime.start.p0(i64 4, ptr %14) #4
  store i32 0, ptr %14, align 4, !tbaa !9
  br label %37

37:                                               ; preds = %93, %36
  %38 = load i32, ptr %14, align 4, !tbaa !9
  %39 = load ptr, ptr %11, align 8, !tbaa !112
  %40 = getelementptr inbounds nuw %class.btReducedDeformableBodySolver, ptr %39, i32 0, i32 7
  %41 = load i32, ptr %12, align 4, !tbaa !9
  %42 = call noundef nonnull align 8 dereferenceable(25) ptr @_ZN20btAlignedObjectArrayIS_I45btReducedDeformableNodeRigidContactConstraintEEixEi(ptr noundef nonnull align 8 dereferenceable(25) %40, i32 noundef %41)
  %43 = call noundef i32 @_ZNK20btAlignedObjectArrayI45btReducedDeformableNodeRigidContactConstraintE4sizeEv(ptr noundef nonnull align 8 dereferenceable(25) %42)
  %44 = icmp slt i32 %38, %43
  br i1 %44, label %46, label %45

45:                                               ; preds = %37
  store i32 5, ptr %13, align 4
  call void @llvm.lifetime.end.p0(i64 4, ptr %14) #4
  br label %96

46:                                               ; preds = %37
  call void @llvm.lifetime.start.p0(i64 8, ptr %15) #4
  %47 = load ptr, ptr %11, align 8, !tbaa !112
  %48 = getelementptr inbounds nuw %class.btReducedDeformableBodySolver, ptr %47, i32 0, i32 7
  %49 = load i32, ptr %12, align 4, !tbaa !9
  %50 = call noundef nonnull align 8 dereferenceable(25) ptr @_ZN20btAlignedObjectArrayIS_I45btReducedDeformableNodeRigidContactConstraintEEixEi(ptr noundef nonnull align 8 dereferenceable(25) %48, i32 noundef %49)
  %51 = load i32, ptr %14, align 4, !tbaa !9
  %52 = call noundef nonnull align 8 dereferenceable(448) ptr @_ZN20btAlignedObjectArrayI45btReducedDeformableNodeRigidContactConstraintEixEi(ptr noundef nonnull align 8 dereferenceable(25) %50, i32 noundef %51)
  store ptr %52, ptr %15, align 8, !tbaa !114
  %53 = load ptr, ptr %15, align 8, !tbaa !114
  %54 = getelementptr inbounds nuw %class.btDeformableRigidContactConstraint, ptr %53, i32 0, i32 6
  %55 = load ptr, ptr %54, align 8, !tbaa !116
  %56 = getelementptr inbounds nuw %"class.btSoftBody::DeformableRigidContact", ptr %55, i32 0, i32 0
  %57 = getelementptr inbounds nuw %"struct.btSoftBody::sCti", ptr %56, i32 0, i32 0
  %58 = load ptr, ptr %57, align 8, !tbaa !121
  %59 = call noundef zeroext i1 @_ZNK17btCollisionObject14isStaticObjectEv(ptr noundef nonnull align 8 dereferenceable(372) %58)
  br i1 %59, label %92, label %60

60:                                               ; preds = %46
  call void @llvm.lifetime.start.p0(i64 8, ptr %16) #4
  %61 = load ptr, ptr %15, align 8, !tbaa !114
  %62 = getelementptr inbounds nuw %class.btDeformableRigidContactConstraint, ptr %61, i32 0, i32 6
  %63 = load ptr, ptr %62, align 8, !tbaa !116
  %64 = getelementptr inbounds nuw %"class.btSoftBody::DeformableRigidContact", ptr %63, i32 0, i32 0
  %65 = getelementptr inbounds nuw %"struct.btSoftBody::sCti", ptr %64, i32 0, i32 0
  %66 = load ptr, ptr %65, align 8, !tbaa !121
  store ptr %66, ptr %16, align 8, !tbaa !106
  call void @llvm.lifetime.start.p0(i64 4, ptr %17) #4
  %67 = load ptr, ptr %16, align 8, !tbaa !106
  %68 = load ptr, ptr %10, align 8, !tbaa !66
  %69 = getelementptr inbounds nuw %struct.btContactSolverInfoData, ptr %68, i32 0, i32 3
  %70 = load float, ptr %69, align 4, !tbaa !125
  %71 = call noundef i32 @_ZN35btSequentialImpulseConstraintSolver19getOrInitSolverBodyER17btCollisionObjectf(ptr noundef nonnull align 8 dereferenceable(408) %20, ptr noundef nonnull align 8 dereferenceable(372) %67, float noundef %70)
  store i32 %71, ptr %17, align 4, !tbaa !9
  call void @llvm.lifetime.start.p0(i64 8, ptr %18) #4
  %72 = load ptr, ptr %7, align 8, !tbaa !60
  %73 = load i32, ptr %17, align 4, !tbaa !9
  %74 = sext i32 %73 to i64
  %75 = getelementptr inbounds ptr, ptr %72, i64 %74
  %76 = load ptr, ptr %75, align 8, !tbaa !106
  %77 = call noundef ptr @_ZN11btRigidBody6upcastEP17btCollisionObject(ptr noundef %76)
  store ptr %77, ptr %18, align 8, !tbaa !126
  %78 = load ptr, ptr %18, align 8, !tbaa !126
  %79 = icmp ne ptr %78, null
  br i1 %79, label %80, label %91

80:                                               ; preds = %60
  %81 = load ptr, ptr %18, align 8, !tbaa !126
  %82 = call noundef float @_ZNK11btRigidBody10getInvMassEv(ptr noundef nonnull align 8 dereferenceable(744) %81)
  %83 = fcmp une float %82, 0.000000e+00
  br i1 %83, label %84, label %91

84:                                               ; preds = %80
  call void @llvm.lifetime.start.p0(i64 8, ptr %19) #4
  %85 = getelementptr inbounds nuw %class.btSequentialImpulseConstraintSolver, ptr %20, i32 0, i32 1
  %86 = load i32, ptr %17, align 4, !tbaa !9
  %87 = call noundef nonnull align 8 dereferenceable(248) ptr @_ZN20btAlignedObjectArrayI12btSolverBodyEixEi(ptr noundef nonnull align 8 dereferenceable(25) %85, i32 noundef %86)
  store ptr %87, ptr %19, align 8, !tbaa !128
  %88 = load ptr, ptr %15, align 8, !tbaa !114
  %89 = load i32, ptr %17, align 4, !tbaa !9
  %90 = load ptr, ptr %19, align 8, !tbaa !128
  call void @_ZN41btReducedDeformableRigidContactConstraint13setSolverBodyEiR12btSolverBody(ptr noundef nonnull align 8 dereferenceable(436) %88, i32 noundef %89, ptr noundef nonnull align 8 dereferenceable(248) %90)
  call void @llvm.lifetime.end.p0(i64 8, ptr %19) #4
  br label %91

91:                                               ; preds = %84, %80, %60
  call void @llvm.lifetime.end.p0(i64 8, ptr %18) #4
  call void @llvm.lifetime.end.p0(i64 4, ptr %17) #4
  call void @llvm.lifetime.end.p0(i64 8, ptr %16) #4
  br label %92

92:                                               ; preds = %91, %46
  call void @llvm.lifetime.end.p0(i64 8, ptr %15) #4
  br label %93

93:                                               ; preds = %92
  %94 = load i32, ptr %14, align 4, !tbaa !9
  %95 = add nsw i32 %94, 1
  store i32 %95, ptr %14, align 4, !tbaa !9
  br label %37, !llvm.loop !129

96:                                               ; preds = %45
  br label %97

97:                                               ; preds = %96
  %98 = load i32, ptr %12, align 4, !tbaa !9
  %99 = add nsw i32 %98, 1
  store i32 %99, ptr %12, align 4, !tbaa !9
  br label %31, !llvm.loop !130

100:                                              ; preds = %35
  call void @llvm.lifetime.end.p0(i64 8, ptr %11) #4
  br label %101

101:                                              ; preds = %100, %27
  ret void
}