; Function Attrs: mustprogress uwtable
define dso_local void @_ZN37btDeformableMultiBodyConstraintSolver27pairDeformableAndSolverBodyEPP17btCollisionObjectiiRK19btContactSolverInfo(ptr noundef nonnull align 8 dereferenceable(800) %0, ptr noundef readonly captures(none) %1, i32 %2, i32 noundef %3, ptr noundef nonnull readonly align 4 captures(none) dereferenceable(128) %4) local_unnamed_addr #4 align 2 {
  %6 = getelementptr inbounds nuw i8, ptr %0, i64 792
  %7 = load ptr, ptr %6, align 8, !tbaa !98
  %8 = load ptr, ptr %7, align 8, !tbaa !50
  %9 = getelementptr inbounds nuw i8, ptr %8, i64 240
  %10 = load ptr, ptr %9, align 8
  %11 = tail call noundef zeroext i1 %10(ptr noundef nonnull align 8 dereferenceable(609) %7)
  %12 = icmp sgt i32 %3, 0
  %or.cond = and i1 %11, %12
  br i1 %or.cond, label %.preheader.lr.ph, label %.loopexit

.preheader.lr.ph:                                 ; preds = %5
  %13 = load ptr, ptr %6, align 8, !tbaa !98
  %14 = getelementptr inbounds nuw i8, ptr %13, i64 688
  %15 = getelementptr inbounds nuw i8, ptr %4, i64 12
  %16 = getelementptr inbounds nuw i8, ptr %0, i64 24
  %wide.trip.count = zext nneg i32 %3 to i64
  %.pre = load ptr, ptr %14, align 8, !tbaa !140
  br label %.preheader

.preheader:                                       ; preds = %.preheader.lr.ph, %._crit_edge
  %17 = phi ptr [ %.pre, %.preheader.lr.ph ], [ %21, %._crit_edge ]
  %indvars.iv29 = phi i64 [ 0, %.preheader.lr.ph ], [ %indvars.iv.next30, %._crit_edge ]
  %18 = getelementptr inbounds nuw %class.btAlignedObjectArray.28, ptr %17, i64 %indvars.iv29, i32 1
  %19 = load i32, ptr %18, align 4, !tbaa !144
  %20 = icmp sgt i32 %19, 0
  br i1 %20, label %.lr.ph, label %._crit_edge

._crit_edge:                                      ; preds = %48, %.preheader
  %21 = phi ptr [ %17, %.preheader ], [ %49, %48 ]
  %indvars.iv.next30 = add nuw nsw i64 %indvars.iv29, 1
  %exitcond.not = icmp eq i64 %indvars.iv.next30, %wide.trip.count
  br i1 %exitcond.not, label %.loopexit, label %.preheader, !llvm.loop !148

.lr.ph:                                           ; preds = %.preheader, %48
  %indvars.iv = phi i64 [ %indvars.iv.next, %48 ], [ 0, %.preheader ]
  %22 = phi ptr [ %49, %48 ], [ %17, %.preheader ]
  %23 = getelementptr inbounds nuw %class.btAlignedObjectArray.28, ptr %22, i64 %indvars.iv29, i32 4
  %24 = load ptr, ptr %23, align 8, !tbaa !149
  %25 = getelementptr inbounds nuw %class.btReducedDeformableNodeRigidContactConstraint, ptr %24, i64 %indvars.iv
  %26 = getelementptr inbounds nuw i8, ptr %25, i64 88
  %27 = load ptr, ptr %26, align 8, !tbaa !150
  %28 = load ptr, ptr %27, align 8, !tbaa !155
  %29 = getelementptr inbounds nuw i8, ptr %28, i64 224
  %30 = load i32, ptr %29, align 8, !tbaa !158
  %31 = and i32 %30, 1
  %.not24 = icmp eq i32 %31, 0
  br i1 %.not24, label %32, label %48

32:                                               ; preds = %.lr.ph
  %33 = load float, ptr %15, align 4, !tbaa !159
  %34 = tail call noundef i32 @_ZN35btSequentialImpulseConstraintSolver19getOrInitSolverBodyER17btCollisionObjectf(ptr noundef nonnull align 8 dereferenceable(408) %0, ptr noundef nonnull align 8 dereferenceable(372) %28, float noundef %33)
  %35 = sext i32 %34 to i64
  %36 = getelementptr inbounds ptr, ptr %1, i64 %35
  %37 = load ptr, ptr %36, align 8, !tbaa !134
  %38 = getelementptr inbounds nuw i8, ptr %37, i64 272
  %39 = load i32, ptr %38, align 8, !tbaa !160
  %40 = and i32 %39, 2
  %.not.i = icmp eq i32 %40, 0
  %.not25 = icmp eq ptr %37, null
  %.not = or i1 %.not25, %.not.i
  br i1 %.not, label %48, label %41

41:                                               ; preds = %32
  %42 = getelementptr inbounds nuw i8, ptr %37, i64 452
  %43 = load float, ptr %42, align 4, !tbaa !161
  %44 = fcmp une float %43, 0.000000e+00
  br i1 %44, label %45, label %48

45:                                               ; preds = %41
  %46 = load ptr, ptr %16, align 8, !tbaa !114
  %47 = getelementptr inbounds %struct.btSolverBody, ptr %46, i64 %35
  tail call void @_ZN41btReducedDeformableRigidContactConstraint13setSolverBodyEiR12btSolverBody(ptr noundef nonnull align 8 dereferenceable(436) %25, i32 noundef %34, ptr noundef nonnull align 8 dereferenceable(248) %47)
  br label %48

48:                                               ; preds = %32, %41, %45, %.lr.ph
  %indvars.iv.next = add nuw nsw i64 %indvars.iv, 1
  %49 = load ptr, ptr %14, align 8, !tbaa !140
  %50 = getelementptr inbounds nuw %class.btAlignedObjectArray.28, ptr %49, i64 %indvars.iv29, i32 1
  %51 = load i32, ptr %50, align 4, !tbaa !144
  %52 = sext i32 %51 to i64
  %53 = icmp slt i64 %indvars.iv.next, %52
  br i1 %53, label %.lr.ph, label %._crit_edge, !llvm.loop !167

.loopexit:                                        ; preds = %._crit_edge, %5
  ret void
}